target datalayout = "e-m:e-p270:32:32-p271:32:32-p272:64:64-i64:64-i128:128-f80:128-n8:16:32:64-S128"
target triple = "x86_64-pc-linux-gnu"

%class.symbol = type { ptr }
%class.arith_decl_plugin = type <{ %class.decl_plugin.base, [4 x i8], ptr, %class.symbol, %class.symbol, %class.symbol, ptr, ptr, ptr, ptr, ptr, ptr, ptr, ptr, ptr, ptr, ptr, ptr, ptr, ptr, ptr, ptr, ptr, ptr, ptr, ptr, ptr, ptr, ptr, ptr, ptr, ptr, ptr, ptr, ptr, ptr, ptr, ptr, ptr, ptr, ptr, ptr, ptr, ptr, ptr, ptr, ptr, ptr, ptr, ptr, ptr, ptr, %class.ptr_vector, %class.ptr_vector, i8, [7 x i8] }>
%class.decl_plugin.base = type <{ ptr, ptr, i32 }>
%class.ptr_vector = type { %class.vector }
%class.vector = type { ptr }
%class.decl_plugin = type <{ ptr, ptr, i32, [4 x i8] }>
%class.ast_manager = type { %class.reslimit, %class.small_object_allocator, %class.family_manager, %class.parray_manager, %class.dependency_manager, %class.parray_manager.16, %class.ptr_vector.19, i32, i8, %class.ast_table, %class.obj_map, %class.id_gen, %class.id_gen, ptr, ptr, ptr, ptr, ptr, i32, i8, [3 x i8], %class.u_map, ptr, i8, i8, ptr, %class.symbol, %class.obj_map.25, ptr }
%class.reslimit = type { %"struct.std::atomic", i8, i64, i64, %class.svector.3, %class.ptr_vector.5 }
%"struct.std::atomic" = type { %"struct.std::__atomic_base" }
%"struct.std::__atomic_base" = type { i32 }
%class.svector.3 = type { %class.vector.4 }
%class.vector.4 = type { ptr }
%class.ptr_vector.5 = type { %class.vector.6 }
%class.vector.6 = type { ptr }
%class.small_object_allocator = type { [32 x ptr], [32 x ptr], i64 }
%class.family_manager = type { i32, %class.symbol_table, %class.svector.10 }
%class.symbol_table = type { %class.core_hashtable, %class.vector.7, %class.svector.8 }
%class.core_hashtable = type <{ ptr, i32, i32, i32, [4 x i8] }>
%class.vector.7 = type { ptr }
%class.svector.8 = type { %class.vector.9 }
%class.vector.9 = type { ptr }
%class.svector.10 = type { %class.vector.11 }
%class.vector.11 = type { ptr }
%class.parray_manager = type { ptr, ptr, %class.ptr_vector.12, %class.ptr_vector.12 }
%class.ptr_vector.12 = type { %class.vector.13 }
%class.vector.13 = type { ptr }
%class.dependency_manager = type { ptr, ptr, %class.ptr_vector.14 }
%class.ptr_vector.14 = type { %class.vector.15 }
%class.vector.15 = type { ptr }
%class.parray_manager.16 = type { ptr, ptr, %class.ptr_vector.17, %class.ptr_vector.17 }
%class.ptr_vector.17 = type { %class.vector.18 }
%class.vector.18 = type { ptr }
%class.ptr_vector.19 = type { %class.vector.20 }
%class.vector.20 = type { ptr }
%class.ast_table = type { %class.chashtable }
%class.chashtable = type { ptr, i32, i32, i32, i32, i32, i32, i32, ptr, ptr, ptr }
%class.obj_map = type { %class.core_hashtable.21 }
%class.core_hashtable.21 = type <{ ptr, i32, i32, i32, [4 x i8] }>
%class.id_gen = type { i32, %class.svector }
%class.svector = type { %class.vector.0 }
%class.vector.0 = type { ptr }
%class.u_map = type { %class.map }
%class.map = type { %class.table2map }
%class.table2map = type { %class.core_hashtable.23 }
%class.core_hashtable.23 = type <{ ptr, i32, i32, i32, [4 x i8] }>
%class.obj_map.25 = type { %class.core_hashtable.26 }
%class.core_hashtable.26 = type <{ ptr, i32, i32, i32, [4 x i8] }>

; Function Attrs: mustprogress nounwind uwtable
define linkonce_odr hidden noundef nonnull align 8 dereferenceable(40) ptr @_ZN11ast_manager5limitEv(ptr noundef nonnull align 8 dereferenceable(976) %0) #5 comdat align 2 {
  %2 = alloca ptr, align 8
  store ptr %0, ptr %2, align 8, !tbaa !25
  %3 = load ptr, ptr %2, align 8
  %4 = getelementptr inbounds nuw %class.ast_manager, ptr %3, i32 0, i32 0
  ret ptr %4
}

; Function Attrs: mustprogress uwtable
define hidden noundef nonnull align 8 dereferenceable(784) ptr @_ZNK17arith_decl_plugin2awEv(ptr noundef nonnull align 8 dereferenceable(441) %0) #4 align 2 {
  %2 = alloca ptr, align 8
  store ptr %0, ptr %2, align 8, !tbaa !3
  %3 = load ptr, ptr %2, align 8
  %4 = getelementptr inbounds nuw %class.arith_decl_plugin, ptr %3, i32 0, i32 2
  %5 = load ptr, ptr %4, align 8, !tbaa !8
  %6 = icmp eq ptr %5, null
  br i1 %6, label %7, label %13

7:                                                ; preds = %1
  %8 = call noalias noundef ptr @_ZN6memory8allocateEm(i64 noundef 784)
  %9 = getelementptr inbounds nuw %class.decl_plugin, ptr %3, i32 0, i32 1
  %10 = load ptr, ptr %9, align 8, !tbaa !24
  %11 = call noundef nonnull align 8 dereferenceable(40) ptr @_ZN11ast_manager5limitEv(ptr noundef nonnull align 8 dereferenceable(976) %10)
  call void @_ZN17arith_decl_plugin25algebraic_numbers_wrapperC2ER8reslimit(ptr noundef nonnull align 8 dereferenceable(784) %8, ptr noundef nonnull align 8 dereferenceable(40) %11)
  %12 = getelementptr inbounds nuw %class.arith_decl_plugin, ptr %3, i32 0, i32 2
  store ptr %8, ptr %12, align 8, !tbaa !8
  br label %13

13:                                               ; preds = %7, %1
  %14 = getelementptr inbounds nuw %class.arith_decl_plugin, ptr %3, i32 0, i32 2
  %15 = load ptr, ptr %14, align 8, !tbaa !8
  ret ptr %15
}